target datalayout = "e-m:e-p270:32:32-p271:32:32-p272:64:64-i64:64-i128:128-f80:128-n8:16:32:64-S128"
target triple = "x86_64-pc-linux-gnu"

@.str.109 = private unnamed_addr constant [9 x i8] c"Revision\00", align 1
@.str.150 = private unnamed_addr constant [9 x i8] c"CPUModel\00", align 1
@.str.151 = private unnamed_addr constant [6 x i8] c"model\00", align 1
@.str.165 = private unnamed_addr constant [12 x i8] c"CPURevision\00", align 1
@.str.171 = private unnamed_addr constant [4 x i8] c"cpu\00", align 1
@.str.172 = private unnamed_addr constant [9 x i8] c"platform\00", align 1
@.str.173 = private unnamed_addr constant [13 x i8] c"PlatformName\00", align 1
@.str.174 = private unnamed_addr constant [14 x i8] c"PlatformModel\00", align 1
@.str.175 = private unnamed_addr constant [7 x i8] c"vendor\00", align 1
@.str.176 = private unnamed_addr constant [15 x i8] c"PlatformVendor\00", align 1
@.str.177 = private unnamed_addr constant [9 x i8] c"Board ID\00", align 1
@.str.178 = private unnamed_addr constant [16 x i8] c"PlatformBoardID\00", align 1
@.str.179 = private unnamed_addr constant [6 x i8] c"Board\00", align 1
@.str.180 = private unnamed_addr constant [8 x i8] c"Machine\00", align 1
@.str.181 = private unnamed_addr constant [13 x i8] c"Hardware rev\00", align 1
@.str.182 = private unnamed_addr constant [17 x i8] c"PlatformRevision\00", align 1
@.str.183 = private unnamed_addr constant [4 x i8] c"SVR\00", align 1
@.str.184 = private unnamed_addr constant [22 x i8] c"SystemVersionRegister\00", align 1
@.str.185 = private unnamed_addr constant [4 x i8] c"PVR\00", align 1
@.str.186 = private unnamed_addr constant [25 x i8] c"ProcessorVersionRegister\00", align 1

; Function Attrs: nounwind uwtable
define internal i32 @hwloc_linux_parse_cpuinfo_ppc(ptr noundef %0, ptr noundef %1, ptr noundef %2, i32 noundef %3) #0 {
  %5 = alloca ptr, align 8
  %6 = alloca ptr, align 8
  %7 = alloca ptr, align 8
  %8 = alloca i32, align 4
  store ptr %0, ptr %5, align 8, !tbaa !3
  store ptr %1, ptr %6, align 8, !tbaa !3
  store ptr %2, ptr %7, align 8, !tbaa !232
  store i32 %3, ptr %8, align 4, !tbaa !10
  %9 = load ptr, ptr %5, align 8, !tbaa !3
  %10 = call i32 @strcmp(ptr noundef @.str.171, ptr noundef %9) #17
  %11 = icmp ne i32 %10, 0
  br i1 %11, label %22, label %12

12:                                               ; preds = %4
  %13 = load ptr, ptr %6, align 8, !tbaa !3
  %14 = getelementptr inbounds i8, ptr %13, i64 0
  %15 = load i8, ptr %14, align 1, !tbaa !54
  %16 = icmp ne i8 %15, 0
  br i1 %16, label %17, label %21

17:                                               ; preds = %12
  %18 = load ptr, ptr %7, align 8, !tbaa !232
  %19 = load ptr, ptr %6, align 8, !tbaa !3
  %20 = call i32 @hwloc__add_info(ptr noundef %18, ptr noundef @.str.150, ptr noundef %19)
  br label %21

21:                                               ; preds = %17, %12
  br label %153

22:                                               ; preds = %4
  %23 = load ptr, ptr %5, align 8, !tbaa !3
  %24 = call i32 @strcmp(ptr noundef @.str.172, ptr noundef %23) #17
  %25 = icmp ne i32 %24, 0
  br i1 %25, label %36, label %26

26:                                               ; preds = %22
  %27 = load ptr, ptr %6, align 8, !tbaa !3
  %28 = getelementptr inbounds i8, ptr %27, i64 0
  %29 = load i8, ptr %28, align 1, !tbaa !54
  %30 = icmp ne i8 %29, 0
  br i1 %30, label %31, label %35

31:                                               ; preds = %26
  %32 = load ptr, ptr %7, align 8, !tbaa !232
  %33 = load ptr, ptr %6, align 8, !tbaa !3
  %34 = call i32 @hwloc__add_info(ptr noundef %32, ptr noundef @.str.173, ptr noundef %33)
  br label %35

35:                                               ; preds = %31, %26
  br label %152

36:                                               ; preds = %22
  %37 = load ptr, ptr %5, align 8, !tbaa !3
  %38 = call i32 @strcmp(ptr noundef @.str.151, ptr noundef %37) #17
  %39 = icmp ne i32 %38, 0
  br i1 %39, label %50, label %40

40:                                               ; preds = %36
  %41 = load ptr, ptr %6, align 8, !tbaa !3
  %42 = getelementptr inbounds i8, ptr %41, i64 0
  %43 = load i8, ptr %42, align 1, !tbaa !54
  %44 = icmp ne i8 %43, 0
  br i1 %44, label %45, label %49

45:                                               ; preds = %40
  %46 = load ptr, ptr %7, align 8, !tbaa !232
  %47 = load ptr, ptr %6, align 8, !tbaa !3
  %48 = call i32 @hwloc__replace_infos(ptr noundef %46, ptr noundef @.str.174, ptr noundef %47)
  br label %49

49:                                               ; preds = %45, %40
  br label %151

50:                                               ; preds = %36
  %51 = load ptr, ptr %5, align 8, !tbaa !3
  %52 = call i32 @strcasecmp(ptr noundef @.str.175, ptr noundef %51) #17
  %53 = icmp ne i32 %52, 0
  br i1 %53, label %64, label %54

54:                                               ; preds = %50
  %55 = load ptr, ptr %6, align 8, !tbaa !3
  %56 = getelementptr inbounds i8, ptr %55, i64 0
  %57 = load i8, ptr %56, align 1, !tbaa !54
  %58 = icmp ne i8 %57, 0
  br i1 %58, label %59, label %63

59:                                               ; preds = %54
  %60 = load ptr, ptr %7, align 8, !tbaa !232
  %61 = load ptr, ptr %6, align 8, !tbaa !3
  %62 = call i32 @hwloc__add_info(ptr noundef %60, ptr noundef @.str.176, ptr noundef %61)
  br label %63

63:                                               ; preds = %59, %54
  br label %150

64:                                               ; preds = %50
  %65 = load ptr, ptr %5, align 8, !tbaa !3
  %66 = call i32 @strcmp(ptr noundef @.str.177, ptr noundef %65) #17
  %67 = icmp ne i32 %66, 0
  br i1 %67, label %78, label %68

68:                                               ; preds = %64
  %69 = load ptr, ptr %6, align 8, !tbaa !3
  %70 = getelementptr inbounds i8, ptr %69, i64 0
  %71 = load i8, ptr %70, align 1, !tbaa !54
  %72 = icmp ne i8 %71, 0
  br i1 %72, label %73, label %77

73:                                               ; preds = %68
  %74 = load ptr, ptr %7, align 8, !tbaa !232
  %75 = load ptr, ptr %6, align 8, !tbaa !3
  %76 = call i32 @hwloc__add_info(ptr noundef %74, ptr noundef @.str.178, ptr noundef %75)
  br label %77

77:                                               ; preds = %73, %68
  br label %149

78:                                               ; preds = %64
  %79 = load ptr, ptr %5, align 8, !tbaa !3
  %80 = call i32 @strcmp(ptr noundef @.str.179, ptr noundef %79) #17
  %81 = icmp ne i32 %80, 0
  br i1 %81, label %82, label %86

82:                                               ; preds = %78
  %83 = load ptr, ptr %5, align 8, !tbaa !3
  %84 = call i32 @strcasecmp(ptr noundef @.str.180, ptr noundef %83) #17
  %85 = icmp ne i32 %84, 0
  br i1 %85, label %96, label %86

86:                                               ; preds = %82, %78
  %87 = load ptr, ptr %6, align 8, !tbaa !3
  %88 = getelementptr inbounds i8, ptr %87, i64 0
  %89 = load i8, ptr %88, align 1, !tbaa !54
  %90 = icmp ne i8 %89, 0
  br i1 %90, label %91, label %95

91:                                               ; preds = %86
  %92 = load ptr, ptr %7, align 8, !tbaa !232
  %93 = load ptr, ptr %6, align 8, !tbaa !3
  %94 = call i32 @hwloc__replace_infos(ptr noundef %92, ptr noundef @.str.174, ptr noundef %93)
  br label %95

95:                                               ; preds = %91, %86
  br label %148

96:                                               ; preds = %82
  %97 = load ptr, ptr %5, align 8, !tbaa !3
  %98 = call i32 @strcasecmp(ptr noundef @.str.109, ptr noundef %97) #17
  %99 = icmp ne i32 %98, 0
  br i1 %99, label %100, label %104

100:                                              ; preds = %96
  %101 = load ptr, ptr %5, align 8, !tbaa !3
  %102 = call i32 @strcmp(ptr noundef @.str.181, ptr noundef %101) #17
  %103 = icmp ne i32 %102, 0
  br i1 %103, label %117, label %104

104:                                              ; preds = %100, %96
  %105 = load ptr, ptr %6, align 8, !tbaa !3
  %106 = getelementptr inbounds i8, ptr %105, i64 0
  %107 = load i8, ptr %106, align 1, !tbaa !54
  %108 = icmp ne i8 %107, 0
  br i1 %108, label %109, label %116

109:                                              ; preds = %104
  %110 = load ptr, ptr %7, align 8, !tbaa !232
  %111 = load i32, ptr %8, align 4, !tbaa !10
  %112 = icmp ne i32 %111, 0
  %113 = select i1 %112, ptr @.str.182, ptr @.str.165
  %114 = load ptr, ptr %6, align 8, !tbaa !3
  %115 = call i32 @hwloc__add_info(ptr noundef %110, ptr noundef %113, ptr noundef %114)
  br label %116

116:                                              ; preds = %109, %104
  br label %147

117:                                              ; preds = %100
  %118 = load ptr, ptr %5, align 8, !tbaa !3
  %119 = call i32 @strcmp(ptr noundef @.str.183, ptr noundef %118) #17
  %120 = icmp ne i32 %119, 0
  br i1 %120, label %131, label %121

121:                                              ; preds = %117
  %122 = load ptr, ptr %6, align 8, !tbaa !3
  %123 = getelementptr inbounds i8, ptr %122, i64 0
  %124 = load i8, ptr %123, align 1, !tbaa !54
  %125 = icmp ne i8 %124, 0
  br i1 %125, label %126, label %130

126:                                              ; preds = %121
  %127 = load ptr, ptr %7, align 8, !tbaa !232
  %128 = load ptr, ptr %6, align 8, !tbaa !3
  %129 = call i32 @hwloc__add_info(ptr noundef %127, ptr noundef @.str.184, ptr noundef %128)
  br label %130

130:                                              ; preds = %126, %121
  br label %146

131:                                              ; preds = %117
  %132 = load ptr, ptr %5, align 8, !tbaa !3
  %133 = call i32 @strcmp(ptr noundef @.str.185, ptr noundef %132) #17
  %134 = icmp ne i32 %133, 0
  br i1 %134, label %145, label %135

135:                                              ; preds = %131
  %136 = load ptr, ptr %6, align 8, !tbaa !3
  %137 = getelementptr inbounds i8, ptr %136, i64 0
  %138 = load i8, ptr %137, align 1, !tbaa !54
  %139 = icmp ne i8 %138, 0
  br i1 %139, label %140, label %144

140:                                              ; preds = %135
  %141 = load ptr, ptr %7, align 8, !tbaa !232
  %142 = load ptr, ptr %6, align 8, !tbaa !3
  %143 = call i32 @hwloc__add_info(ptr noundef %141, ptr noundef @.str.186, ptr noundef %142)
  br label %144

144:                                              ; preds = %140, %135
  br label %145

145:                                              ; preds = %144, %131
  br label %146

146:                                              ; preds = %145, %130
  br label %147

147:                                              ; preds = %146, %116
  br label %148

148:                                              ; preds = %147, %95
  br label %149

149:                                              ; preds = %148, %77
  br label %150

150:                                              ; preds = %149, %63
  br label %151

151:                                              ; preds = %150, %49
  br label %152

152:                                              ; preds = %151, %35
  br label %153

153:                                              ; preds = %152, %21
  ret i32 0
}