; Function Attrs: nounwind uwtable
define internal noundef i32 @hwloc_linux_parse_cpuinfo_ppc(ptr noundef readonly captures(none) %0, ptr noundef %1, ptr noundef %2, i32 noundef %3) unnamed_addr #0 {
  %5 = tail call i32 @strcmp(ptr noundef nonnull dereferenceable(4) @.str.171, ptr noundef nonnull dereferenceable(1) %0) #30
  %.not = icmp eq i32 %5, 0
  br i1 %.not, label %6, label %10

6:                                                ; preds = %4
  %7 = load i8, ptr %1, align 1, !tbaa !7
  %.not38 = icmp eq i8 %7, 0
  br i1 %.not38, label %63, label %8

8:                                                ; preds = %6
  %9 = tail call i32 @hwloc__add_info(ptr noundef %2, ptr noundef nonnull @.str.150, ptr noundef nonnull %1) #27
  br label %63

10:                                               ; preds = %4
  %11 = tail call i32 @strcmp(ptr noundef nonnull dereferenceable(9) @.str.172, ptr noundef nonnull dereferenceable(1) %0) #30
  %.not39 = icmp eq i32 %11, 0
  br i1 %.not39, label %12, label %16

12:                                               ; preds = %10
  %13 = load i8, ptr %1, align 1, !tbaa !7
  %.not40 = icmp eq i8 %13, 0
  br i1 %.not40, label %63, label %14

14:                                               ; preds = %12
  %15 = tail call i32 @hwloc__add_info(ptr noundef %2, ptr noundef nonnull @.str.173, ptr noundef nonnull %1) #27
  br label %63

16:                                               ; preds = %10
  %17 = tail call i32 @strcmp(ptr noundef nonnull dereferenceable(6) @.str.151, ptr noundef nonnull dereferenceable(1) %0) #30
  %.not41 = icmp eq i32 %17, 0
  br i1 %.not41, label %18, label %22

18:                                               ; preds = %16
  %19 = load i8, ptr %1, align 1, !tbaa !7
  %.not42 = icmp eq i8 %19, 0
  br i1 %.not42, label %63, label %20

20:                                               ; preds = %18
  %21 = tail call i32 @hwloc__replace_infos(ptr noundef %2, ptr noundef nonnull @.str.174, ptr noundef nonnull %1) #27
  br label %63

22:                                               ; preds = %16
  %23 = tail call i32 @strcasecmp(ptr noundef nonnull @.str.175, ptr noundef nonnull %0) #30
  %.not43 = icmp eq i32 %23, 0
  br i1 %.not43, label %24, label %28

24:                                               ; preds = %22
  %25 = load i8, ptr %1, align 1, !tbaa !7
  %.not44 = icmp eq i8 %25, 0
  br i1 %.not44, label %63, label %26

26:                                               ; preds = %24
  %27 = tail call i32 @hwloc__add_info(ptr noundef %2, ptr noundef nonnull @.str.176, ptr noundef nonnull %1) #27
  br label %63

28:                                               ; preds = %22
  %29 = tail call i32 @strcmp(ptr noundef nonnull dereferenceable(9) @.str.177, ptr noundef nonnull dereferenceable(1) %0) #30
  %.not45 = icmp eq i32 %29, 0
  br i1 %.not45, label %30, label %34

30:                                               ; preds = %28
  %31 = load i8, ptr %1, align 1, !tbaa !7
  %.not46 = icmp eq i8 %31, 0
  br i1 %.not46, label %63, label %32

32:                                               ; preds = %30
  %33 = tail call i32 @hwloc__add_info(ptr noundef %2, ptr noundef nonnull @.str.178, ptr noundef nonnull %1) #27
  br label %63

34:                                               ; preds = %28
  %35 = tail call i32 @strcmp(ptr noundef nonnull dereferenceable(6) @.str.179, ptr noundef nonnull dereferenceable(1) %0) #30
  %.not47 = icmp eq i32 %35, 0
  br i1 %.not47, label %38, label %36

36:                                               ; preds = %34
  %37 = tail call i32 @strcasecmp(ptr noundef nonnull @.str.180, ptr noundef nonnull %0) #30
  %.not48 = icmp eq i32 %37, 0
  br i1 %.not48, label %38, label %42

38:                                               ; preds = %36, %34
  %39 = load i8, ptr %1, align 1, !tbaa !7
  %.not49 = icmp eq i8 %39, 0
  br i1 %.not49, label %63, label %40

40:                                               ; preds = %38
  %41 = tail call i32 @hwloc__replace_infos(ptr noundef %2, ptr noundef nonnull @.str.174, ptr noundef nonnull %1) #27
  br label %63

42:                                               ; preds = %36
  %43 = tail call i32 @strcasecmp(ptr noundef nonnull @.str.109, ptr noundef nonnull %0) #30
  %.not50 = icmp eq i32 %43, 0
  br i1 %.not50, label %46, label %44

44:                                               ; preds = %42
  %45 = tail call i32 @strcmp(ptr noundef nonnull dereferenceable(13) @.str.181, ptr noundef nonnull dereferenceable(1) %0) #30
  %.not51 = icmp eq i32 %45, 0
  br i1 %.not51, label %46, label %51

46:                                               ; preds = %44, %42
  %47 = load i8, ptr %1, align 1, !tbaa !7
  %.not52 = icmp eq i8 %47, 0
  br i1 %.not52, label %63, label %48

48:                                               ; preds = %46
  %.not53 = icmp eq i32 %3, 0
  %49 = select i1 %.not53, ptr @.str.165, ptr @.str.182
  %50 = tail call i32 @hwloc__add_info(ptr noundef %2, ptr noundef nonnull %49, ptr noundef nonnull %1) #27
  br label %63

51:                                               ; preds = %44
  %52 = tail call i32 @strcmp(ptr noundef nonnull dereferenceable(4) @.str.183, ptr noundef nonnull dereferenceable(1) %0) #30
  %.not54 = icmp eq i32 %52, 0
  br i1 %.not54, label %53, label %57

53:                                               ; preds = %51
  %54 = load i8, ptr %1, align 1, !tbaa !7
  %.not55 = icmp eq i8 %54, 0
  br i1 %.not55, label %63, label %55

55:                                               ; preds = %53
  %56 = tail call i32 @hwloc__add_info(ptr noundef %2, ptr noundef nonnull @.str.184, ptr noundef nonnull %1) #27
  br label %63

57:                                               ; preds = %51
  %58 = tail call i32 @strcmp(ptr noundef nonnull dereferenceable(4) @.str.185, ptr noundef nonnull dereferenceable(1) %0) #30
  %.not56 = icmp eq i32 %58, 0
  br i1 %.not56, label %59, label %63

59:                                               ; preds = %57
  %60 = load i8, ptr %1, align 1, !tbaa !7
  %.not57 = icmp eq i8 %60, 0
  br i1 %.not57, label %63, label %61

61:                                               ; preds = %59
  %62 = tail call i32 @hwloc__add_info(ptr noundef %2, ptr noundef nonnull @.str.186, ptr noundef nonnull %1) #27
  br label %63

63:                                               ; preds = %14, %12, %26, %24, %40, %38, %55, %53, %59, %61, %57, %46, %48, %30, %32, %18, %20, %6, %8
  ret i32 0
}